; Function Attrs: nounwind uwtable
define range(i32 -1, 1) i32 @H5F__reparse_file_lock_variable_test() local_unnamed_addr #0 {
  %1 = tail call i32 @H5F__parse_file_lock_env_var(ptr noundef nonnull @use_locks_env_g, ptr noundef nonnull @ignore_disabled_locks_g) #2
  %2 = icmp slt i32 %1, 0
  br i1 %2, label %3, label %7

3:                                                ; preds = %0
  %4 = load i64, ptr @H5E_FILE_g, align 8
  %5 = load i64, ptr @H5E_CANTGET_g, align 8
  %6 = tail call i32 (ptr, ptr, i32, i64, i64, ptr, ...) @H5E_printf_stack(ptr noundef nonnull @.str, ptr noundef nonnull @__func__.H5F__reparse_file_lock_variable_test, i32 noundef 262, i64 noundef %4, i64 noundef %5, ptr noundef nonnull @.str.6) #2
  br label %7

7:                                                ; preds = %0, %3
  %.0 = phi i32 [ -1, %3 ], [ 0, %0 ]
  ret i32 %.0
}